; Function Attrs: mustprogress uwtable
define internal ptr @_ZNK32pxrInternal_v0_24__pxrReserved__8TfNotice18_StandardDelivererINS0_10_DelivererINS_9TfWeakPtrINS_12_GLOBAL__N_117_FunctionRegistryEEENS_12TfAnyWeakPtrEMS5_FvRKNS_10PlugNotice18DidRegisterPluginsEES9_EEE13GetNoticeTypeEv(ptr nocapture nonnull readnone align 8 %0) unnamed_addr #0 align 2 personality ptr @__gxx_personality_v0 {
  %2 = alloca %"class.pxrInternal_v0_24__pxrReserved__::TfType", align 8
  %3 = alloca %"struct.pxrInternal_v0_24__pxrReserved__::Tf_DiagnosticHelper", align 8
  %4 = alloca %"class.std::__cxx11::basic_string", align 8
  %5 = alloca %"class.std::__cxx11::basic_string", align 8
  %6 = alloca %"class.std::__cxx11::basic_string", align 8
  %7 = tail call noundef nonnull align 8 dereferenceable(8) ptr @_ZN32pxrInternal_v0_24__pxrReserved__6TfType13_FindByTypeidERKSt9type_info(ptr noundef nonnull align 8 dereferenceable(16) @_ZTIN32pxrInternal_v0_24__pxrReserved__10PlugNotice18DidRegisterPluginsE)
  %8 = load i64, ptr %7, align 8
  %9 = inttoptr i64 %8 to ptr
  call void @llvm.lifetime.start.p0(i64 8, ptr nonnull %2)
  call void @_ZN32pxrInternal_v0_24__pxrReserved__6TfTypeC1Ev(ptr noundef nonnull align 8 dereferenceable(8) %2)
  %10 = load ptr, ptr %2, align 8
  %11 = icmp eq ptr %10, %9
  call void @llvm.lifetime.end.p0(i64 8, ptr nonnull %2)
  br i1 %11, label %12, label %31

12:                                               ; preds = %1
  store ptr @.str.22, ptr %3, align 8
  %.sroa.2.0..sroa_idx = getelementptr inbounds i8, ptr %3, i64 8
  store ptr @__func__._ZNK32pxrInternal_v0_24__pxrReserved__8TfNotice18_StandardDelivererINS0_10_DelivererINS_9TfWeakPtrINS_12_GLOBAL__N_117_FunctionRegistryEEENS_12TfAnyWeakPtrEMS5_FvRKNS_10PlugNotice18DidRegisterPluginsEES9_EEE13GetNoticeTypeEv, ptr %.sroa.2.0..sroa_idx, align 8
  %.sroa.3.0..sroa_idx = getelementptr inbounds i8, ptr %3, i64 16
  store i64 546, ptr %.sroa.3.0..sroa_idx, align 8
  %.sroa.4.0..sroa_idx = getelementptr inbounds i8, ptr %3, i64 24
  store ptr @__PRETTY_FUNCTION__._ZNK32pxrInternal_v0_24__pxrReserved__8TfNotice18_StandardDelivererINS0_10_DelivererINS_9TfWeakPtrINS_12_GLOBAL__N_117_FunctionRegistryEEENS_12TfAnyWeakPtrEMS5_FvRKNS_10PlugNotice18DidRegisterPluginsEES9_EEE13GetNoticeTypeEv, ptr %.sroa.4.0..sroa_idx, align 8
  %.sroa.5.0..sroa_idx = getelementptr inbounds i8, ptr %3, i64 32
  store i8 0, ptr %.sroa.5.0..sroa_idx, align 8
  %13 = getelementptr inbounds nuw i8, ptr %3, i64 40
  store i32 4, ptr %13, align 8
  %14 = load ptr, ptr getelementptr inbounds nuw (i8, ptr @_ZTIN32pxrInternal_v0_24__pxrReserved__10PlugNotice18DidRegisterPluginsE, i64 8), align 8, !noalias !39
  %15 = load i8, ptr %14, align 1, !noalias !39
  %16 = icmp eq i8 %15, 42
  %.idx.i.i = zext i1 %16 to i64
  %17 = getelementptr inbounds i8, ptr %14, i64 %.idx.i.i
  call void @_ZN32pxrInternal_v0_24__pxrReserved__16ArchGetDemangledB5cxx11EPKc(ptr dead_on_unwind nonnull writable sret(%"class.std::__cxx11::basic_string") align 8 %6, ptr noundef nonnull %17)
  %18 = invoke noundef nonnull align 8 dereferenceable(32) ptr @_ZNSt7__cxx1112basic_stringIcSt11char_traitsIcESaIcEE6insertEmPKc(ptr noundef nonnull align 8 dereferenceable(32) %6, i64 noundef 0, ptr noundef nonnull @.str.23)
          to label %19 unwind label %23

19:                                               ; preds = %12
  call void @_ZNSt7__cxx1112basic_stringIcSt11char_traitsIcESaIcEEC1EOS4_(ptr noundef nonnull align 8 dereferenceable(32) %5, ptr noundef nonnull align 8 dereferenceable(32) %18) #14
  %20 = invoke noundef nonnull align 8 dereferenceable(32) ptr @_ZNSt7__cxx1112basic_stringIcSt11char_traitsIcESaIcEE6appendEPKc(ptr noundef nonnull align 8 dereferenceable(32) %5, ptr noundef nonnull @.str.24)
          to label %21 unwind label %25

21:                                               ; preds = %19
  call void @_ZNSt7__cxx1112basic_stringIcSt11char_traitsIcESaIcEEC1EOS4_(ptr noundef nonnull align 8 dereferenceable(32) %4, ptr noundef nonnull align 8 dereferenceable(32) %20) #14
  invoke void @_ZNK32pxrInternal_v0_24__pxrReserved__19Tf_DiagnosticHelper15IssueFatalErrorERKNSt7__cxx1112basic_stringIcSt11char_traitsIcESaIcEEE(ptr noundef nonnull align 8 dereferenceable(44) %3, ptr noundef nonnull align 8 dereferenceable(32) %4)
          to label %22 unwind label %27

22:                                               ; preds = %21
  call void @_ZNSt7__cxx1112basic_stringIcSt11char_traitsIcESaIcEED1Ev(ptr noundef nonnull align 8 dereferenceable(32) %4) #14
  call void @_ZNSt7__cxx1112basic_stringIcSt11char_traitsIcESaIcEED1Ev(ptr noundef nonnull align 8 dereferenceable(32) %5) #14
  call void @_ZNSt7__cxx1112basic_stringIcSt11char_traitsIcESaIcEED1Ev(ptr noundef nonnull align 8 dereferenceable(32) %6) #14
  br label %31

23:                                               ; preds = %12
  %24 = landingpad { ptr, i32 }
          cleanup
  br label %30

25:                                               ; preds = %19
  %26 = landingpad { ptr, i32 }
          cleanup
  br label %29

27:                                               ; preds = %21
  %28 = landingpad { ptr, i32 }
          cleanup
  call void @_ZNSt7__cxx1112basic_stringIcSt11char_traitsIcESaIcEED1Ev(ptr noundef nonnull align 8 dereferenceable(32) %4) #14
  br label %29

29:                                               ; preds = %27, %25
  %.pn = phi { ptr, i32 } [ %28, %27 ], [ %26, %25 ]
  call void @_ZNSt7__cxx1112basic_stringIcSt11char_traitsIcESaIcEED1Ev(ptr noundef nonnull align 8 dereferenceable(32) %5) #14
  br label %30

30:                                               ; preds = %29, %23
  %.pn.pn = phi { ptr, i32 } [ %.pn, %29 ], [ %24, %23 ]
  call void @_ZNSt7__cxx1112basic_stringIcSt11char_traitsIcESaIcEED1Ev(ptr noundef nonnull align 8 dereferenceable(32) %6) #14
  resume { ptr, i32 } %.pn.pn

31:                                               ; preds = %22, %1
  ret ptr %9
}